target datalayout = "e-m:e-p270:32:32-p271:32:32-p272:64:64-i64:64-i128:128-f80:128-n8:16:32:64-S128"
target triple = "x86_64-pc-linux-gnu"

%struct.hb_atomic_int_t = type { i32 }
%struct.hb_segment_properties_t = type { i32, i32, ptr, ptr, ptr }
%struct.hb_buffer_t = type <{ %struct.hb_object_header_t, ptr, i32, i32, i32, i32, i32, i32, %struct.hb_segment_properties_t, i8, i8, i8, i8, i32, i32, i32, i32, [4 x i8], ptr, ptr, ptr, [2 x [5 x i32]], [2 x i32], i8, i8, [2 x i8], i32, i32, i32, ptr, ptr, ptr, i32, [4 x i8] }>
%struct.hb_object_header_t = type { %struct.hb_reference_count_t, %struct.hb_atomic_int_t, %struct.hb_atomic_ptr_t }
%struct.hb_reference_count_t = type { %struct.hb_atomic_int_t }
%struct.hb_atomic_ptr_t = type { ptr }
%struct.hb_glyph_info_t = type { i32, i32, i32, %union._hb_var_int_t, %union._hb_var_int_t }
%union._hb_var_int_t = type { i32 }

; Function Attrs: mustprogress nounwind uwtable
define internal noundef i32 @_Zor16hb_glyph_flags_tS_(i32 noundef %0, i32 noundef %1) #1 {
  %3 = alloca i32, align 4
  %4 = alloca i32, align 4
  store i32 %0, ptr %3, align 4
  store i32 %1, ptr %4, align 4
  %5 = load i32, ptr %3, align 4
  %6 = load i32, ptr %4, align 4
  %7 = or i32 %5, %6
  ret i32 %7
}

; Function Attrs: mustprogress uwtable
define linkonce_odr hidden void @_ZN11hb_buffer_t15unsafe_to_breakEjj(ptr noundef nonnull align 8 dereferenceable(220) %0, i32 noundef %1, i32 noundef %2) #0 comdat align 2 {
  %4 = alloca ptr, align 8
  %5 = alloca i32, align 4
  %6 = alloca i32, align 4
  store ptr %0, ptr %4, align 8
  store i32 %1, ptr %5, align 4
  store i32 %2, ptr %6, align 4
  %7 = load ptr, ptr %4, align 8
  %8 = call noundef i32 @_Zor16hb_glyph_flags_tS_(i32 noundef 1, i32 noundef 2)
  %9 = load i32, ptr %5, align 4
  %10 = load i32, ptr %6, align 4
  call void @_ZN11hb_buffer_t16_set_glyph_flagsEjjjbb(ptr noundef nonnull align 8 dereferenceable(220) %7, i32 noundef %8, i32 noundef %9, i32 noundef %10, i1 noundef zeroext true, i1 noundef zeroext false)
  ret void
}

; Function Attrs: mustprogress nounwind uwtable
define internal noundef i32 @_ZL17_hb_next_syllableP11hb_buffer_tj(ptr noundef %0, i32 noundef %1) #1 {
  %3 = alloca ptr, align 8
  %4 = alloca i32, align 4
  %5 = alloca ptr, align 8
  %6 = alloca i32, align 4
  %7 = alloca i32, align 4
  store ptr %0, ptr %3, align 8
  store i32 %1, ptr %4, align 4
  %8 = load ptr, ptr %3, align 8
  %9 = getelementptr inbounds %struct.hb_buffer_t, ptr %8, i32 0, i32 18
  %10 = load ptr, ptr %9, align 8
  store ptr %10, ptr %5, align 8
  %11 = load ptr, ptr %3, align 8
  %12 = getelementptr inbounds %struct.hb_buffer_t, ptr %11, i32 0, i32 14
  %13 = load i32, ptr %12, align 8
  store i32 %13, ptr %6, align 4
  %14 = load ptr, ptr %5, align 8
  %15 = load i32, ptr %4, align 4
  %16 = zext i32 %15 to i64
  %17 = getelementptr inbounds %struct.hb_glyph_info_t, ptr %14, i64 %16
  %18 = getelementptr inbounds %struct.hb_glyph_info_t, ptr %17, i32 0, i32 3
  %19 = getelementptr inbounds [4 x i8], ptr %18, i64 0, i64 3
  %20 = load i8, ptr %19, align 1
  %21 = zext i8 %20 to i32
  store i32 %21, ptr %7, align 4
  br label %22

22:                                               ; preds = %40, %2
  %23 = load i32, ptr %4, align 4
  %24 = add i32 %23, 1
  store i32 %24, ptr %4, align 4
  %25 = load i32, ptr %6, align 4
  %26 = icmp ult i32 %24, %25
  br i1 %26, label %27, label %38

27:                                               ; preds = %22
  %28 = load i32, ptr %7, align 4
  %29 = load ptr, ptr %5, align 8
  %30 = load i32, ptr %4, align 4
  %31 = zext i32 %30 to i64
  %32 = getelementptr inbounds %struct.hb_glyph_info_t, ptr %29, i64 %31
  %33 = getelementptr inbounds %struct.hb_glyph_info_t, ptr %32, i32 0, i32 3
  %34 = getelementptr inbounds [4 x i8], ptr %33, i64 0, i64 3
  %35 = load i8, ptr %34, align 1
  %36 = zext i8 %35 to i32
  %37 = icmp eq i32 %28, %36
  br label %38

38:                                               ; preds = %27, %22
  %39 = phi i1 [ false, %22 ], [ %37, %27 ]
  br i1 %39, label %40, label %41

40:                                               ; preds = %38
  br label %22, !llvm.loop !30

41:                                               ; preds = %38
  %42 = load i32, ptr %4, align 4
  ret i32 %42
}

; Function Attrs: mustprogress nounwind uwtable
define linkonce_odr hidden void @_ZN11hb_buffer_t12allocate_varEjj(ptr noundef nonnull align 8 dereferenceable(220) %0, i32 noundef %1, i32 noundef %2) #1 comdat align 2 {
  %4 = alloca ptr, align 8
  %5 = alloca i32, align 4
  %6 = alloca i32, align 4
  %7 = alloca i32, align 4
  %8 = alloca i32, align 4
  store ptr %0, ptr %4, align 8
  store i32 %1, ptr %5, align 4
  store i32 %2, ptr %6, align 4
  %9 = load ptr, ptr %4, align 8
  %10 = load i32, ptr %5, align 4
  %11 = load i32, ptr %6, align 4
  %12 = add i32 %10, %11
  store i32 %12, ptr %7, align 4
  %13 = load i32, ptr %7, align 4
  %14 = shl i32 1, %13
  %15 = load i32, ptr %5, align 4
  %16 = shl i32 1, %15
  %17 = sub i32 %14, %16
  store i32 %17, ptr %8, align 4
  %18 = load i32, ptr %8, align 4
  %19 = getelementptr inbounds %struct.hb_buffer_t, ptr %9, i32 0, i32 23
  %20 = load i8, ptr %19, align 8
  %21 = zext i8 %20 to i32
  %22 = or i32 %21, %18
  %23 = trunc i32 %22 to i8
  store i8 %23, ptr %19, align 8
  ret void
}

; Function Attrs: mustprogress uwtable
define internal noundef zeroext i1 @_ZL21setup_syllables_indicPK18hb_ot_shape_plan_tP9hb_font_tP11hb_buffer_t(ptr noundef %0, ptr noundef %1, ptr noundef %2) #0 {
  %4 = alloca ptr, align 8
  %5 = alloca ptr, align 8
  %6 = alloca ptr, align 8
  %7 = alloca i32, align 4
  %8 = alloca i32, align 4
  %9 = alloca i32, align 4
  store ptr %0, ptr %4, align 8
  store ptr %1, ptr %5, align 8
  store ptr %2, ptr %6, align 8
  %10 = load ptr, ptr %6, align 8
  call void @_ZN11hb_buffer_t12allocate_varEjj(ptr noundef nonnull align 8 dereferenceable(220) %10, i32 noundef 3, i32 noundef 1)
  %11 = load ptr, ptr %6, align 8
  call void @_Z20find_syllables_indicP11hb_buffer_t(ptr noundef %11)
  %12 = load ptr, ptr %6, align 8
  %13 = getelementptr inbounds %struct.hb_buffer_t, ptr %12, i32 0, i32 14
  %14 = load i32, ptr %13, align 8
  store i32 %14, ptr %7, align 4
  store i32 0, ptr %8, align 4
  %15 = load i32, ptr %7, align 4
  %16 = icmp ne i32 %15, 0
  br i1 %16, label %17, label %20

17:                                               ; preds = %3
  %18 = load ptr, ptr %6, align 8
  %19 = call noundef i32 @_ZL17_hb_next_syllableP11hb_buffer_tj(ptr noundef %18, i32 noundef 0)
  br label %21

20:                                               ; preds = %3
  br label %21

21:                                               ; preds = %20, %17
  %22 = phi i32 [ %19, %17 ], [ 0, %20 ]
  store i32 %22, ptr %9, align 4
  br label %23

23:                                               ; preds = %31, %21
  %24 = load i32, ptr %8, align 4
  %25 = load i32, ptr %7, align 4
  %26 = icmp ult i32 %24, %25
  br i1 %26, label %27, label %36

27:                                               ; preds = %23
  %28 = load ptr, ptr %6, align 8
  %29 = load i32, ptr %8, align 4
  %30 = load i32, ptr %9, align 4
  call void @_ZN11hb_buffer_t15unsafe_to_breakEjj(ptr noundef nonnull align 8 dereferenceable(220) %28, i32 noundef %29, i32 noundef %30)
  br label %31

31:                                               ; preds = %27
  %32 = load i32, ptr %9, align 4
  store i32 %32, ptr %8, align 4
  %33 = load ptr, ptr %6, align 8
  %34 = load i32, ptr %8, align 4
  %35 = call noundef i32 @_ZL17_hb_next_syllableP11hb_buffer_tj(ptr noundef %33, i32 noundef %34)
  store i32 %35, ptr %9, align 4
  br label %23, !llvm.loop !12

36:                                               ; preds = %23
  ret i1 false
}